; Function Attrs: nounwind uwtable
define hidden void @zif_debug_print_backtrace(ptr noundef readonly captures(none) %0, ptr readnone captures(none) %1) #0 {
  %3 = alloca i64, align 8
  %4 = alloca i64, align 8
  %5 = alloca %struct._zval_struct, align 8
  call void @llvm.lifetime.start.p0(i64 8, ptr nonnull %3) #14
  store i64 0, ptr %3, align 8, !tbaa !61
  call void @llvm.lifetime.start.p0(i64 8, ptr nonnull %4) #14
  store i64 0, ptr %4, align 8, !tbaa !61
  call void @llvm.lifetime.start.p0(i64 16, ptr nonnull %5) #14
  %6 = getelementptr inbounds nuw i8, ptr %0, i64 44
  %7 = load i32, ptr %6, align 4, !tbaa !28
  %8 = call i32 (i32, ptr, ...) @zend_parse_parameters(i32 noundef %7, ptr noundef nonnull @.str.46, ptr noundef nonnull %3, ptr noundef nonnull %4) #14
  %9 = icmp eq i32 %8, -1
  br i1 %9, label %10, label %13

10:                                               ; preds = %2
  %11 = load ptr, ptr getelementptr inbounds nuw (i8, ptr @executor_globals, i64 960), align 8, !tbaa !67
  %12 = icmp ne ptr %11, null
  call void @llvm.assume(i1 %12)
  br label %37

13:                                               ; preds = %2
  %14 = load i64, ptr %3, align 8, !tbaa !61
  %15 = trunc i64 %14 to i32
  %16 = load i64, ptr %4, align 8, !tbaa !61
  %17 = trunc i64 %16 to i32
  call void @zend_fetch_debug_backtrace(ptr noundef nonnull %5, i32 noundef 1, i32 noundef %15, i32 noundef %17)
  %18 = load ptr, ptr %5, align 8, !tbaa !28
  %19 = call ptr @zend_trace_to_string(ptr noundef %18, i1 noundef zeroext false) #14
  %20 = load ptr, ptr @zend_write, align 8, !tbaa !4
  %21 = getelementptr inbounds nuw i8, ptr %19, i64 24
  %22 = getelementptr inbounds nuw i8, ptr %19, i64 16
  %23 = load i64, ptr %22, align 8, !tbaa !65
  %24 = call i64 %20(ptr noundef nonnull %21, i64 noundef %23) #14
  %25 = getelementptr inbounds nuw i8, ptr %19, i64 4
  %26 = load i32, ptr %25, align 4, !tbaa !28
  %27 = and i32 %26, 64
  %.not.i = icmp eq i32 %27, 0
  br i1 %.not.i, label %28, label %zend_string_release.exit

28:                                               ; preds = %13
  %29 = load i32, ptr %19, align 4, !tbaa !30
  %30 = icmp ne i32 %29, 0
  call void @llvm.assume(i1 %30)
  %31 = add i32 %29, -1
  store i32 %31, ptr %19, align 4, !tbaa !30
  %32 = icmp eq i32 %31, 0
  br i1 %32, label %33, label %zend_string_release.exit

33:                                               ; preds = %28
  %34 = and i32 %26, 128
  %.not5.i = icmp eq i32 %34, 0
  br i1 %.not5.i, label %36, label %35

35:                                               ; preds = %33
  call void @free(ptr noundef nonnull %19) #14
  br label %zend_string_release.exit

36:                                               ; preds = %33
  call void @_efree(ptr noundef nonnull %19) #14
  br label %zend_string_release.exit

zend_string_release.exit:                         ; preds = %13, %28, %35, %36
  call void @zval_ptr_dtor(ptr noundef nonnull %5) #14
  br label %37

37:                                               ; preds = %zend_string_release.exit, %10
  call void @llvm.lifetime.end.p0(i64 16, ptr nonnull %5) #14
  call void @llvm.lifetime.end.p0(i64 8, ptr nonnull %4) #14
  call void @llvm.lifetime.end.p0(i64 8, ptr nonnull %3) #14
  ret void
}